target datalayout = "e-m:e-p270:32:32-p271:32:32-p272:64:64-i64:64-i128:128-f80:128-n8:16:32:64-S128"
target triple = "x86_64-pc-linux-gnu"

%struct._generic_N_Vector = type { ptr, ptr, ptr }
%struct._N_VectorContent_Serial = type { i64, i32, ptr }
%struct._generic_SUNMatrix = type { ptr, ptr, ptr }
%struct._SUNMatrixContent_Dense = type { i64, i64, ptr, i64, ptr }

; Function Attrs: nounwind uwtable
define internal i32 @Jac(double noundef %0, ptr noundef %1, ptr noundef %2, ptr noundef %3, ptr noundef %4, ptr noundef %5, ptr noundef %6, ptr noundef %7) #0 {
  %9 = alloca double, align 8
  %10 = alloca ptr, align 8
  %11 = alloca ptr, align 8
  %12 = alloca ptr, align 8
  %13 = alloca ptr, align 8
  %14 = alloca ptr, align 8
  %15 = alloca ptr, align 8
  %16 = alloca ptr, align 8
  %17 = alloca ptr, align 8
  %18 = alloca double, align 8
  %19 = alloca double, align 8
  %20 = alloca double, align 8
  %21 = alloca double, align 8
  store double %0, ptr %9, align 8, !tbaa !4
  store ptr %1, ptr %10, align 8, !tbaa !12
  store ptr %2, ptr %11, align 8, !tbaa !12
  store ptr %3, ptr %12, align 8, !tbaa !15
  store ptr %4, ptr %13, align 8, !tbaa !19
  store ptr %5, ptr %14, align 8, !tbaa !12
  store ptr %6, ptr %15, align 8, !tbaa !12
  store ptr %7, ptr %16, align 8, !tbaa !12
  call void @llvm.lifetime.start.p0(i64 8, ptr %17) #5
  %22 = load ptr, ptr %13, align 8, !tbaa !19
  store ptr %22, ptr %17, align 8, !tbaa !34
  call void @llvm.lifetime.start.p0(i64 8, ptr %18) #5
  %23 = load ptr, ptr %17, align 8, !tbaa !34
  %24 = getelementptr inbounds double, ptr %23, i64 2
  %25 = load double, ptr %24, align 8, !tbaa !4
  store double %25, ptr %18, align 8, !tbaa !4
  call void @llvm.lifetime.start.p0(i64 8, ptr %19) #5
  %26 = load ptr, ptr %10, align 8, !tbaa !12
  %27 = getelementptr inbounds nuw %struct._generic_N_Vector, ptr %26, i32 0, i32 0
  %28 = load ptr, ptr %27, align 8, !tbaa !22
  %29 = getelementptr inbounds nuw %struct._N_VectorContent_Serial, ptr %28, i32 0, i32 2
  %30 = load ptr, ptr %29, align 8, !tbaa !25
  %31 = getelementptr inbounds double, ptr %30, i64 0
  %32 = load double, ptr %31, align 8, !tbaa !4
  store double %32, ptr %19, align 8, !tbaa !4
  call void @llvm.lifetime.start.p0(i64 8, ptr %20) #5
  %33 = load ptr, ptr %10, align 8, !tbaa !12
  %34 = getelementptr inbounds nuw %struct._generic_N_Vector, ptr %33, i32 0, i32 0
  %35 = load ptr, ptr %34, align 8, !tbaa !22
  %36 = getelementptr inbounds nuw %struct._N_VectorContent_Serial, ptr %35, i32 0, i32 2
  %37 = load ptr, ptr %36, align 8, !tbaa !25
  %38 = getelementptr inbounds double, ptr %37, i64 1
  %39 = load double, ptr %38, align 8, !tbaa !4
  store double %39, ptr %20, align 8, !tbaa !4
  call void @llvm.lifetime.start.p0(i64 8, ptr %21) #5
  %40 = load ptr, ptr %10, align 8, !tbaa !12
  %41 = getelementptr inbounds nuw %struct._generic_N_Vector, ptr %40, i32 0, i32 0
  %42 = load ptr, ptr %41, align 8, !tbaa !22
  %43 = getelementptr inbounds nuw %struct._N_VectorContent_Serial, ptr %42, i32 0, i32 2
  %44 = load ptr, ptr %43, align 8, !tbaa !25
  %45 = getelementptr inbounds double, ptr %44, i64 2
  %46 = load double, ptr %45, align 8, !tbaa !4
  store double %46, ptr %21, align 8, !tbaa !4
  %47 = load double, ptr %21, align 8, !tbaa !4
  %48 = fadd double %47, 1.000000e+00
  %49 = fneg double %48
  %50 = load double, ptr %19, align 8, !tbaa !4
  %51 = fmul double 2.000000e+00, %50
  %52 = load double, ptr %20, align 8, !tbaa !4
  %53 = call double @llvm.fmuladd.f64(double %51, double %52, double %49)
  %54 = load ptr, ptr %12, align 8, !tbaa !15
  %55 = getelementptr inbounds nuw %struct._generic_SUNMatrix, ptr %54, i32 0, i32 0
  %56 = load ptr, ptr %55, align 8, !tbaa !35
  %57 = getelementptr inbounds nuw %struct._SUNMatrixContent_Dense, ptr %56, i32 0, i32 4
  %58 = load ptr, ptr %57, align 8, !tbaa !38
  %59 = getelementptr inbounds ptr, ptr %58, i64 0
  %60 = load ptr, ptr %59, align 8, !tbaa !34
  %61 = getelementptr inbounds double, ptr %60, i64 0
  store double %53, ptr %61, align 8, !tbaa !4
  %62 = load double, ptr %19, align 8, !tbaa !4
  %63 = load double, ptr %19, align 8, !tbaa !4
  %64 = fmul double %62, %63
  %65 = load ptr, ptr %12, align 8, !tbaa !15
  %66 = getelementptr inbounds nuw %struct._generic_SUNMatrix, ptr %65, i32 0, i32 0
  %67 = load ptr, ptr %66, align 8, !tbaa !35
  %68 = getelementptr inbounds nuw %struct._SUNMatrixContent_Dense, ptr %67, i32 0, i32 4
  %69 = load ptr, ptr %68, align 8, !tbaa !38
  %70 = getelementptr inbounds ptr, ptr %69, i64 1
  %71 = load ptr, ptr %70, align 8, !tbaa !34
  %72 = getelementptr inbounds double, ptr %71, i64 0
  store double %64, ptr %72, align 8, !tbaa !4
  %73 = load double, ptr %19, align 8, !tbaa !4
  %74 = fneg double %73
  %75 = load ptr, ptr %12, align 8, !tbaa !15
  %76 = getelementptr inbounds nuw %struct._generic_SUNMatrix, ptr %75, i32 0, i32 0
  %77 = load ptr, ptr %76, align 8, !tbaa !35
  %78 = getelementptr inbounds nuw %struct._SUNMatrixContent_Dense, ptr %77, i32 0, i32 4
  %79 = load ptr, ptr %78, align 8, !tbaa !38
  %80 = getelementptr inbounds ptr, ptr %79, i64 2
  %81 = load ptr, ptr %80, align 8, !tbaa !34
  %82 = getelementptr inbounds double, ptr %81, i64 0
  store double %74, ptr %82, align 8, !tbaa !4
  %83 = load double, ptr %21, align 8, !tbaa !4
  %84 = load double, ptr %19, align 8, !tbaa !4
  %85 = fmul double 2.000000e+00, %84
  %86 = load double, ptr %20, align 8, !tbaa !4
  %87 = fneg double %85
  %88 = call double @llvm.fmuladd.f64(double %87, double %86, double %83)
  %89 = load ptr, ptr %12, align 8, !tbaa !15
  %90 = getelementptr inbounds nuw %struct._generic_SUNMatrix, ptr %89, i32 0, i32 0
  %91 = load ptr, ptr %90, align 8, !tbaa !35
  %92 = getelementptr inbounds nuw %struct._SUNMatrixContent_Dense, ptr %91, i32 0, i32 4
  %93 = load ptr, ptr %92, align 8, !tbaa !38
  %94 = getelementptr inbounds ptr, ptr %93, i64 0
  %95 = load ptr, ptr %94, align 8, !tbaa !34
  %96 = getelementptr inbounds double, ptr %95, i64 1
  store double %88, ptr %96, align 8, !tbaa !4
  %97 = load double, ptr %19, align 8, !tbaa !4
  %98 = fneg double %97
  %99 = load double, ptr %19, align 8, !tbaa !4
  %100 = fmul double %98, %99
  %101 = load ptr, ptr %12, align 8, !tbaa !15
  %102 = getelementptr inbounds nuw %struct._generic_SUNMatrix, ptr %101, i32 0, i32 0
  %103 = load ptr, ptr %102, align 8, !tbaa !35
  %104 = getelementptr inbounds nuw %struct._SUNMatrixContent_Dense, ptr %103, i32 0, i32 4
  %105 = load ptr, ptr %104, align 8, !tbaa !38
  %106 = getelementptr inbounds ptr, ptr %105, i64 1
  %107 = load ptr, ptr %106, align 8, !tbaa !34
  %108 = getelementptr inbounds double, ptr %107, i64 1
  store double %100, ptr %108, align 8, !tbaa !4
  %109 = load double, ptr %19, align 8, !tbaa !4
  %110 = load ptr, ptr %12, align 8, !tbaa !15
  %111 = getelementptr inbounds nuw %struct._generic_SUNMatrix, ptr %110, i32 0, i32 0
  %112 = load ptr, ptr %111, align 8, !tbaa !35
  %113 = getelementptr inbounds nuw %struct._SUNMatrixContent_Dense, ptr %112, i32 0, i32 4
  %114 = load ptr, ptr %113, align 8, !tbaa !38
  %115 = getelementptr inbounds ptr, ptr %114, i64 2
  %116 = load ptr, ptr %115, align 8, !tbaa !34
  %117 = getelementptr inbounds double, ptr %116, i64 1
  store double %109, ptr %117, align 8, !tbaa !4
  %118 = load double, ptr %21, align 8, !tbaa !4
  %119 = fneg double %118
  %120 = load ptr, ptr %12, align 8, !tbaa !15
  %121 = getelementptr inbounds nuw %struct._generic_SUNMatrix, ptr %120, i32 0, i32 0
  %122 = load ptr, ptr %121, align 8, !tbaa !35
  %123 = getelementptr inbounds nuw %struct._SUNMatrixContent_Dense, ptr %122, i32 0, i32 4
  %124 = load ptr, ptr %123, align 8, !tbaa !38
  %125 = getelementptr inbounds ptr, ptr %124, i64 0
  %126 = load ptr, ptr %125, align 8, !tbaa !34
  %127 = getelementptr inbounds double, ptr %126, i64 2
  store double %119, ptr %127, align 8, !tbaa !4
  %128 = load ptr, ptr %12, align 8, !tbaa !15
  %129 = getelementptr inbounds nuw %struct._generic_SUNMatrix, ptr %128, i32 0, i32 0
  %130 = load ptr, ptr %129, align 8, !tbaa !35
  %131 = getelementptr inbounds nuw %struct._SUNMatrixContent_Dense, ptr %130, i32 0, i32 4
  %132 = load ptr, ptr %131, align 8, !tbaa !38
  %133 = getelementptr inbounds ptr, ptr %132, i64 1
  %134 = load ptr, ptr %133, align 8, !tbaa !34
  %135 = getelementptr inbounds double, ptr %134, i64 2
  store double 0.000000e+00, ptr %135, align 8, !tbaa !4
  %136 = load double, ptr %18, align 8, !tbaa !4
  %137 = fdiv double -1.000000e+00, %136
  %138 = load double, ptr %19, align 8, !tbaa !4
  %139 = fsub double %137, %138
  %140 = load ptr, ptr %12, align 8, !tbaa !15
  %141 = getelementptr inbounds nuw %struct._generic_SUNMatrix, ptr %140, i32 0, i32 0
  %142 = load ptr, ptr %141, align 8, !tbaa !35
  %143 = getelementptr inbounds nuw %struct._SUNMatrixContent_Dense, ptr %142, i32 0, i32 4
  %144 = load ptr, ptr %143, align 8, !tbaa !38
  %145 = getelementptr inbounds ptr, ptr %144, i64 2
  %146 = load ptr, ptr %145, align 8, !tbaa !34
  %147 = getelementptr inbounds double, ptr %146, i64 2
  store double %139, ptr %147, align 8, !tbaa !4
  call void @llvm.lifetime.end.p0(i64 8, ptr %21) #5
  call void @llvm.lifetime.end.p0(i64 8, ptr %20) #5
  call void @llvm.lifetime.end.p0(i64 8, ptr %19) #5
  call void @llvm.lifetime.end.p0(i64 8, ptr %18) #5
  call void @llvm.lifetime.end.p0(i64 8, ptr %17) #5
  ret i32 0
}