; Function Attrs: mustprogress nofree norecurse nosync nounwind willreturn memory(readwrite, inaccessiblemem: none) uwtable
define internal noundef i32 @Jac(double %0, ptr noundef readonly captures(none) %1, ptr readnone captures(none) %2, ptr noundef readonly captures(none) %3, ptr noundef readonly captures(none) %4, ptr readnone captures(none) %5, ptr readnone captures(none) %6, ptr readnone captures(none) %7) #4 {
  %9 = getelementptr inbounds nuw i8, ptr %4, i64 16
  %10 = load double, ptr %9, align 8, !tbaa !10
  %11 = load ptr, ptr %1, align 8, !tbaa !14
  %12 = getelementptr inbounds nuw i8, ptr %11, i64 16
  %13 = load ptr, ptr %12, align 8, !tbaa !17
  %14 = load double, ptr %13, align 8, !tbaa !10
  %15 = getelementptr inbounds nuw i8, ptr %13, i64 8
  %16 = load double, ptr %15, align 8, !tbaa !10
  %17 = getelementptr inbounds nuw i8, ptr %13, i64 16
  %18 = load double, ptr %17, align 8, !tbaa !10
  %19 = fadd double %18, 1.000000e+00
  %20 = fneg double %19
  %21 = fmul double %14, 2.000000e+00
  %22 = tail call double @llvm.fmuladd.f64(double %21, double %16, double %20)
  %23 = load ptr, ptr %3, align 8, !tbaa !23
  %24 = getelementptr inbounds nuw i8, ptr %23, i64 32
  %25 = load ptr, ptr %24, align 8, !tbaa !26
  %26 = load ptr, ptr %25, align 8, !tbaa !29
  store double %22, ptr %26, align 8, !tbaa !10
  %27 = fmul double %14, %14
  %28 = getelementptr inbounds nuw i8, ptr %25, i64 8
  %29 = load ptr, ptr %28, align 8, !tbaa !29
  store double %27, ptr %29, align 8, !tbaa !10
  %30 = fneg double %14
  %31 = getelementptr inbounds nuw i8, ptr %25, i64 16
  %32 = load ptr, ptr %31, align 8, !tbaa !29
  store double %30, ptr %32, align 8, !tbaa !10
  %33 = fneg double %21
  %34 = tail call double @llvm.fmuladd.f64(double %33, double %16, double %18)
  %35 = getelementptr inbounds nuw i8, ptr %26, i64 8
  store double %34, ptr %35, align 8, !tbaa !10
  %36 = fmul double %14, %30
  %37 = getelementptr inbounds nuw i8, ptr %29, i64 8
  store double %36, ptr %37, align 8, !tbaa !10
  %38 = getelementptr inbounds nuw i8, ptr %32, i64 8
  store double %14, ptr %38, align 8, !tbaa !10
  %39 = fneg double %18
  %40 = getelementptr inbounds nuw i8, ptr %26, i64 16
  store double %39, ptr %40, align 8, !tbaa !10
  %41 = getelementptr inbounds nuw i8, ptr %29, i64 16
  store double 0.000000e+00, ptr %41, align 8, !tbaa !10
  %42 = fdiv double -1.000000e+00, %10
  %43 = fsub double %42, %14
  %44 = getelementptr inbounds nuw i8, ptr %32, i64 16
  store double %43, ptr %44, align 8, !tbaa !10
  ret i32 0
}